; Function Attrs: nounwind uwtable
define hidden ptr @lj_tab_new_ah(ptr noundef %0, i32 noundef %1, i32 noundef %2) local_unnamed_addr #0 {
.fold.split:
  %switch = icmp ult i32 %2, 2
  %3 = add nsw i32 %2, -1
  %4 = tail call range(i32 0, 33) i32 @llvm.ctlz.i32(i32 %3, i1 true)
  %5 = sub nuw nsw i32 32, %4
  %6 = select i1 %switch, i32 %2, i32 %5
  %7 = icmp sgt i32 %1, 0
  %8 = add nuw nsw i32 %1, 1
  %9 = select i1 %7, i32 %8, i32 0
  %10 = tail call fastcc ptr @newtab(ptr noundef %0, i32 noundef %9, i32 noundef %6)
  %11 = getelementptr inbounds nuw i8, ptr %10, i64 48
  %12 = load i32, ptr %11, align 8, !tbaa !4
  %.not9.i = icmp eq i32 %12, 0
  br i1 %.not9.i, label %clearapart.exit.i, label %.lr.ph.preheader.i

.lr.ph.preheader.i:                               ; preds = %.fold.split
  %13 = getelementptr inbounds nuw i8, ptr %10, i64 16
  %14 = load i64, ptr %13, align 8, !tbaa !12
  %15 = inttoptr i64 %14 to ptr
  %16 = zext i32 %12 to i64
  %17 = shl nuw nsw i64 %16, 3
  tail call void @llvm.memset.p0.i64(ptr align 8 %15, i8 -1, i64 %17, i1 false), !tbaa !13
  br label %clearapart.exit.i

clearapart.exit.i:                                ; preds = %.lr.ph.preheader.i, %.fold.split
  %18 = getelementptr inbounds nuw i8, ptr %10, i64 52
  %19 = load i32, ptr %18, align 4, !tbaa !14
  %.not.i = icmp eq i32 %19, 0
  br i1 %.not.i, label %lj_tab_new.exit, label %20

20:                                               ; preds = %clearapart.exit.i
  %21 = getelementptr inbounds nuw i8, ptr %10, i64 40
  %22 = load i64, ptr %21, align 8, !tbaa !15
  %23 = inttoptr i64 %22 to ptr
  %24 = add i32 %19, 1
  %umax.i = tail call i32 @llvm.umax.i32(i32 %24, i32 1)
  %wide.trip.count.i = zext i32 %umax.i to i64
  br label %25

25:                                               ; preds = %25, %20
  %indvars.iv.i = phi i64 [ 0, %20 ], [ %indvars.iv.next.i, %25 ]
  %26 = getelementptr inbounds nuw %struct.Node, ptr %23, i64 %indvars.iv.i
  %27 = getelementptr inbounds nuw i8, ptr %26, i64 16
  store i64 0, ptr %27, align 8, !tbaa !16
  %indvars.iv.next.i = add nuw nsw i64 %indvars.iv.i, 1
  %exitcond.i = icmp eq i64 %indvars.iv.next.i, %wide.trip.count.i
  tail call void @llvm.memset.p0.i64(ptr noundef nonnull align 8 dereferenceable(16) %26, i8 -1, i64 16, i1 false)
  br i1 %exitcond.i, label %lj_tab_new.exit, label %25, !llvm.loop !18

lj_tab_new.exit:                                  ; preds = %25, %clearapart.exit.i
  ret ptr %10
}